target datalayout = "e-m:e-p270:32:32-p271:32:32-p272:64:64-i64:64-i128:128-f80:128-n8:16:32:64-S128"
target triple = "x86_64-pc-linux-gnu"

%"class.euf::ac_plugin" = type { %"class.euf::plugin", i32, i32, ptr, %class.vector, %class.ptr_vector, %class.svector, %class.vector.2, %class.svector.3, %class.stacked_dependency_manager, %class.tracked_uint_set, %class.tracked_uint_set, i64, %"struct.euf::ac_plugin::monomial_hash", %"struct.euf::ac_plugin::monomial_eq", %class.map, %class.svector.11, %class.ptr_vector, %class.svector.13, %class.svector.15, %class.svector.17, %"class.std::function", %class.ptr_vector.19, %class.ptr_vector, %class.ptr_vector, %class.ptr_vector, %class.ptr_vector, %"struct.euf::ac_plugin::ref_counts", %"struct.euf::ac_plugin::ref_counts", %"struct.euf::ac_plugin::ref_counts", %"struct.euf::ac_plugin::ref_counts", %"struct.euf::ac_plugin::ref_counts", %"struct.euf::ac_plugin::ref_counts", %class.svector.9, %class.svector }
%"class.euf::plugin" = type { ptr, ptr }
%class.vector = type { ptr }
%class.vector.2 = type { ptr }
%class.svector.3 = type { %class.vector.4 }
%class.vector.4 = type { ptr }
%class.stacked_dependency_manager = type { [8 x i8], %"class.stacked_dependency_manager<euf::justification>::config::allocator", %class.dependency_manager }
%"class.stacked_dependency_manager<euf::justification>::config::allocator" = type { ptr }
%class.dependency_manager = type { ptr, ptr, %class.ptr_vector.5 }
%class.ptr_vector.5 = type { %class.vector.6 }
%class.vector.6 = type { ptr }
%class.tracked_uint_set = type { %class.svector.7, %class.svector.9 }
%class.svector.7 = type { %class.vector.8 }
%class.vector.8 = type { ptr }
%"struct.euf::ac_plugin::monomial_hash" = type { ptr }
%"struct.euf::ac_plugin::monomial_eq" = type { ptr }
%class.map = type { %class.table2map }
%class.table2map = type { %class.core_hashtable }
%class.core_hashtable = type <{ %"struct.table2map<default_map_entry<unsigned int, euf::ac_plugin::shared>, euf::ac_plugin::monomial_hash, euf::ac_plugin::monomial_eq>::entry_hash_proc", %"struct.table2map<default_map_entry<unsigned int, euf::ac_plugin::shared>, euf::ac_plugin::monomial_hash, euf::ac_plugin::monomial_eq>::entry_eq_proc", ptr, i32, i32, i32, [4 x i8] }>
%"struct.table2map<default_map_entry<unsigned int, euf::ac_plugin::shared>, euf::ac_plugin::monomial_hash, euf::ac_plugin::monomial_eq>::entry_hash_proc" = type { %"struct.euf::ac_plugin::monomial_hash" }
%"struct.table2map<default_map_entry<unsigned int, euf::ac_plugin::shared>, euf::ac_plugin::monomial_hash, euf::ac_plugin::monomial_eq>::entry_eq_proc" = type { %"struct.euf::ac_plugin::monomial_eq" }
%class.svector.11 = type { %class.vector.12 }
%class.vector.12 = type { ptr }
%class.svector.13 = type { %class.vector.14 }
%class.vector.14 = type { ptr }
%class.svector.15 = type { %class.vector.16 }
%class.vector.16 = type { ptr }
%class.svector.17 = type { %class.vector.18 }
%class.vector.18 = type { ptr }
%"class.std::function" = type { %"class.std::_Function_base", ptr }
%"class.std::_Function_base" = type { %"union.std::_Any_data", ptr }
%"union.std::_Any_data" = type { %"union.std::_Nocopy_types" }
%"union.std::_Nocopy_types" = type { { i64, i64 } }
%class.ptr_vector.19 = type { %class.vector.20 }
%class.vector.20 = type { ptr }
%class.ptr_vector = type { %class.vector.0 }
%class.vector.0 = type { ptr }
%"struct.euf::ac_plugin::ref_counts" = type { %class.svector.9, %class.svector.9 }
%class.svector.9 = type { %class.vector.10 }
%class.vector.10 = type { ptr }
%class.svector = type { %class.vector.1 }
%class.vector.1 = type { ptr }
%"class.euf::justification" = type { i32, %union.anon, %union.anon.41 }
%union.anon = type { ptr }
%union.anon.41 = type { ptr }
%"struct.euf::ac_plugin::monomial_t" = type { %class.ptr_vector, %"struct.euf::ac_plugin::bloom" }
%"struct.euf::ac_plugin::bloom" = type { i64, i64 }
%"struct.euf::ac_plugin::eq" = type { i32, i32, i32, %"class.euf::justification" }

; Function Attrs: mustprogress uwtable
define linkonce_odr hidden noundef nonnull align 8 dereferenceable(8) ptr @_ZN6vectorIPN3euf9ac_plugin4nodeELb0EjE9push_backERKS3_(ptr noundef nonnull align 8 dereferenceable(8) %0, ptr noundef nonnull align 8 dereferenceable(8) %1) #4 comdat align 2 {
  %3 = alloca ptr, align 8
  %4 = alloca ptr, align 8
  store ptr %0, ptr %3, align 8, !tbaa !124
  store ptr %1, ptr %4, align 8, !tbaa !163
  %5 = load ptr, ptr %3, align 8
  %6 = getelementptr inbounds nuw %class.vector.0, ptr %5, i32 0, i32 0
  %7 = load ptr, ptr %6, align 8, !tbaa !186
  %8 = icmp eq ptr %7, null
  br i1 %8, label %19, label %9

9:                                                ; preds = %2
  %10 = getelementptr inbounds nuw %class.vector.0, ptr %5, i32 0, i32 0
  %11 = load ptr, ptr %10, align 8, !tbaa !186
  %12 = getelementptr inbounds i32, ptr %11, i64 -1
  %13 = load i32, ptr %12, align 4, !tbaa !10
  %14 = getelementptr inbounds nuw %class.vector.0, ptr %5, i32 0, i32 0
  %15 = load ptr, ptr %14, align 8, !tbaa !186
  %16 = getelementptr inbounds i32, ptr %15, i64 -2
  %17 = load i32, ptr %16, align 4, !tbaa !10
  %18 = icmp eq i32 %13, %17
  br i1 %18, label %19, label %20

19:                                               ; preds = %9, %2
  call void @_ZN6vectorIPN3euf9ac_plugin4nodeELb0EjE13expand_vectorEv(ptr noundef nonnull align 8 dereferenceable(8) %5)
  br label %20

20:                                               ; preds = %19, %9
  %21 = getelementptr inbounds nuw %class.vector.0, ptr %5, i32 0, i32 0
  %22 = load ptr, ptr %21, align 8, !tbaa !186
  %23 = getelementptr inbounds nuw %class.vector.0, ptr %5, i32 0, i32 0
  %24 = load ptr, ptr %23, align 8, !tbaa !186
  %25 = getelementptr inbounds i32, ptr %24, i64 -1
  %26 = load i32, ptr %25, align 4, !tbaa !10
  %27 = zext i32 %26 to i64
  %28 = getelementptr inbounds nuw ptr, ptr %22, i64 %27
  %29 = load ptr, ptr %4, align 8, !tbaa !163
  %30 = load ptr, ptr %29, align 8, !tbaa !164
  store ptr %30, ptr %28, align 8, !tbaa !164
  %31 = getelementptr inbounds nuw %class.vector.0, ptr %5, i32 0, i32 0
  %32 = load ptr, ptr %31, align 8, !tbaa !186
  %33 = getelementptr inbounds i32, ptr %32, i64 -1
  %34 = load i32, ptr %33, align 4, !tbaa !10
  %35 = add i32 %34, 1
  store i32 %35, ptr %33, align 4, !tbaa !10
  ret ptr %5
}

; Function Attrs: mustprogress nounwind uwtable
define linkonce_odr hidden noundef nonnull align 8 dereferenceable(8) ptr @_ZNK6vectorIPN3euf9ac_plugin4nodeELb0EjEixEj(ptr noundef nonnull align 8 dereferenceable(8) %0, i32 noundef %1) #5 comdat align 2 {
  %3 = alloca ptr, align 8
  %4 = alloca i32, align 4
  store ptr %0, ptr %3, align 8, !tbaa !124
  store i32 %1, ptr %4, align 4, !tbaa !10
  %5 = load ptr, ptr %3, align 8
  %6 = getelementptr inbounds nuw %class.vector.0, ptr %5, i32 0, i32 0
  %7 = load ptr, ptr %6, align 8, !tbaa !186
  %8 = load i32, ptr %4, align 4, !tbaa !10
  %9 = zext i32 %8 to i64
  %10 = getelementptr inbounds nuw ptr, ptr %7, i64 %9
  ret ptr %10
}

; Function Attrs: mustprogress nounwind uwtable
define linkonce_odr hidden noundef i32 @_ZNK6vectorIPN3euf9ac_plugin4nodeELb0EjE4sizeEv(ptr noundef nonnull align 8 dereferenceable(8) %0) #5 comdat align 2 {
  %2 = alloca i32, align 4
  %3 = alloca ptr, align 8
  store ptr %0, ptr %3, align 8, !tbaa !124
  %4 = load ptr, ptr %3, align 8
  %5 = getelementptr inbounds nuw %class.vector.0, ptr %4, i32 0, i32 0
  %6 = load ptr, ptr %5, align 8, !tbaa !186
  %7 = icmp eq ptr %6, null
  br i1 %7, label %8, label %9

8:                                                ; preds = %1
  store i32 0, ptr %2, align 4
  br label %14

9:                                                ; preds = %1
  %10 = getelementptr inbounds nuw %class.vector.0, ptr %4, i32 0, i32 0
  %11 = load ptr, ptr %10, align 8, !tbaa !186
  %12 = getelementptr inbounds i32, ptr %11, i64 -1
  %13 = load i32, ptr %12, align 4, !tbaa !10
  store i32 %13, ptr %2, align 4
  br label %14

14:                                               ; preds = %9, %8
  %15 = load i32, ptr %2, align 4
  ret i32 %15
}

; Function Attrs: mustprogress nounwind uwtable
define linkonce_odr hidden noundef nonnull align 8 dereferenceable(24) ptr @_ZN6vectorIN3euf9ac_plugin10monomial_tELb1EjEixEj(ptr noundef nonnull align 8 dereferenceable(8) %0, i32 noundef %1) #5 comdat align 2 {
  %3 = alloca ptr, align 8
  %4 = alloca i32, align 4
  store ptr %0, ptr %3, align 8, !tbaa !87
  store i32 %1, ptr %4, align 4, !tbaa !10
  %5 = load ptr, ptr %3, align 8
  %6 = getelementptr inbounds nuw %class.vector.2, ptr %5, i32 0, i32 0
  %7 = load ptr, ptr %6, align 8, !tbaa !89
  %8 = load i32, ptr %4, align 4, !tbaa !10
  %9 = zext i32 %8 to i64
  %10 = getelementptr inbounds nuw %"struct.euf::ac_plugin::monomial_t", ptr %7, i64 %9
  ret ptr %10
}

; Function Attrs: mustprogress uwtable
define hidden void @_ZNK3euf9ac_plugin15init_ref_countsERKNS0_10monomial_tERNS0_10ref_countsE(ptr noundef nonnull align 8 dereferenceable(432) %0, ptr noundef nonnull align 8 dereferenceable(24) %1, ptr noundef nonnull align 8 dereferenceable(16) %2) #4 align 2 {
  %4 = alloca ptr, align 8
  %5 = alloca ptr, align 8
  %6 = alloca ptr, align 8
  store ptr %0, ptr %4, align 8, !tbaa !3
  store ptr %1, ptr %5, align 8, !tbaa !162
  store ptr %2, ptr %6, align 8, !tbaa !116
  %7 = load ptr, ptr %4, align 8
  %8 = load ptr, ptr %5, align 8, !tbaa !162
  %9 = getelementptr inbounds nuw %"struct.euf::ac_plugin::monomial_t", ptr %8, i32 0, i32 0
  %10 = load ptr, ptr %6, align 8, !tbaa !116
  call void @_ZNK3euf9ac_plugin15init_ref_countsERK10ptr_vectorINS0_4nodeEERNS0_10ref_countsE(ptr noundef nonnull align 8 dereferenceable(432) %7, ptr noundef nonnull align 8 dereferenceable(8) %9, ptr noundef nonnull align 8 dereferenceable(16) %10)
  ret void
}

; Function Attrs: mustprogress uwtable
define linkonce_odr hidden void @_ZN6vectorIPN3euf9ac_plugin4nodeELb0EjE6appendERKS4_(ptr noundef nonnull align 8 dereferenceable(8) %0, ptr noundef nonnull align 8 dereferenceable(8) %1) #4 comdat align 2 {
  %3 = alloca ptr, align 8
  %4 = alloca ptr, align 8
  %5 = alloca i32, align 4
  store ptr %0, ptr %3, align 8, !tbaa !124
  store ptr %1, ptr %4, align 8, !tbaa !124
  %6 = load ptr, ptr %3, align 8
  call void @llvm.lifetime.start.p0(i64 4, ptr %5) #3
  store i32 0, ptr %5, align 4, !tbaa !10
  br label %7

7:                                                ; preds = %18, %2
  %8 = load i32, ptr %5, align 4, !tbaa !10
  %9 = load ptr, ptr %4, align 8, !tbaa !124
  %10 = call noundef i32 @_ZNK6vectorIPN3euf9ac_plugin4nodeELb0EjE4sizeEv(ptr noundef nonnull align 8 dereferenceable(8) %9)
  %11 = icmp ult i32 %8, %10
  br i1 %11, label %13, label %12

12:                                               ; preds = %7
  call void @llvm.lifetime.end.p0(i64 4, ptr %5) #3
  br label %21

13:                                               ; preds = %7
  %14 = load ptr, ptr %4, align 8, !tbaa !124
  %15 = load i32, ptr %5, align 4, !tbaa !10
  %16 = call noundef nonnull align 8 dereferenceable(8) ptr @_ZNK6vectorIPN3euf9ac_plugin4nodeELb0EjEixEj(ptr noundef nonnull align 8 dereferenceable(8) %14, i32 noundef %15)
  %17 = call noundef nonnull align 8 dereferenceable(8) ptr @_ZN6vectorIPN3euf9ac_plugin4nodeELb0EjE9push_backERKS3_(ptr noundef nonnull align 8 dereferenceable(8) %6, ptr noundef nonnull align 8 dereferenceable(8) %16)
  br label %18

18:                                               ; preds = %13
  %19 = load i32, ptr %5, align 4, !tbaa !10
  %20 = add i32 %19, 1
  store i32 %20, ptr %5, align 4, !tbaa !10
  br label %7, !llvm.loop !310

21:                                               ; preds = %12
  ret void
}

; Function Attrs: mustprogress uwtable
define linkonce_odr hidden noundef nonnull align 8 dereferenceable(24) ptr @_ZN3euf9ac_plugin8monomialEj(ptr noundef nonnull align 8 dereferenceable(432) %0, i32 noundef %1) #4 comdat align 2 {
  %3 = alloca ptr, align 8
  %4 = alloca i32, align 4
  store ptr %0, ptr %3, align 8, !tbaa !3
  store i32 %1, ptr %4, align 4, !tbaa !10
  %5 = load ptr, ptr %3, align 8
  %6 = getelementptr inbounds nuw %"class.euf::ac_plugin", ptr %5, i32 0, i32 7
  %7 = load i32, ptr %4, align 4, !tbaa !10
  %8 = call noundef nonnull align 8 dereferenceable(24) ptr @_ZN6vectorIN3euf9ac_plugin10monomial_tELb1EjEixEj(ptr noundef nonnull align 8 dereferenceable(8) %6, i32 noundef %7)
  ret ptr %8
}

; Function Attrs: mustprogress nounwind uwtable
define linkonce_odr hidden void @_ZN6vectorIPN3euf9ac_plugin4nodeELb0EjE5resetEv(ptr noundef nonnull align 8 dereferenceable(8) %0) #5 comdat align 2 {
  %2 = alloca ptr, align 8
  store ptr %0, ptr %2, align 8, !tbaa !124
  %3 = load ptr, ptr %2, align 8
  %4 = getelementptr inbounds nuw %class.vector.0, ptr %3, i32 0, i32 0
  %5 = load ptr, ptr %4, align 8, !tbaa !186
  %6 = icmp ne ptr %5, null
  br i1 %6, label %7, label %11

7:                                                ; preds = %1
  %8 = getelementptr inbounds nuw %class.vector.0, ptr %3, i32 0, i32 0
  %9 = load ptr, ptr %8, align 8, !tbaa !186
  %10 = getelementptr inbounds i32, ptr %9, i64 -1
  store i32 0, ptr %10, align 4, !tbaa !10
  br label %11

11:                                               ; preds = %7, %1
  ret void
}

; Function Attrs: mustprogress nounwind uwtable
define linkonce_odr hidden noundef nonnull align 8 dereferenceable(40) ptr @_ZN6vectorIN3euf9ac_plugin2eqELb1EjEixEj(ptr noundef nonnull align 8 dereferenceable(8) %0, i32 noundef %1) #5 comdat align 2 {
  %3 = alloca ptr, align 8
  %4 = alloca i32, align 4
  store ptr %0, ptr %3, align 8, !tbaa !80
  store i32 %1, ptr %4, align 4, !tbaa !10
  %5 = load ptr, ptr %3, align 8
  %6 = getelementptr inbounds nuw %class.vector, ptr %5, i32 0, i32 0
  %7 = load ptr, ptr %6, align 8, !tbaa !82
  %8 = load i32, ptr %4, align 4, !tbaa !10
  %9 = zext i32 %8 to i64
  %10 = getelementptr inbounds nuw %"struct.euf::ac_plugin::eq", ptr %7, i64 %9
  ret ptr %10
}

; Function Attrs: mustprogress uwtable
define hidden noundef nonnull align 8 dereferenceable(8) ptr @_ZN3euf9ac_plugin18superpose_iteratorEj(ptr noundef nonnull align 8 dereferenceable(432) %0, i32 noundef %1) #4 align 2 {
  %3 = alloca ptr, align 8
  %4 = alloca i32, align 4
  %5 = alloca ptr, align 8
  store ptr %0, ptr %3, align 8, !tbaa !3
  store i32 %1, ptr %4, align 4, !tbaa !10
  %6 = load ptr, ptr %3, align 8
  call void @llvm.lifetime.start.p0(i64 8, ptr %5) #3
  %7 = getelementptr inbounds nuw %"class.euf::ac_plugin", ptr %6, i32 0, i32 4
  %8 = load i32, ptr %4, align 4, !tbaa !10
  %9 = call noundef nonnull align 8 dereferenceable(40) ptr @_ZN6vectorIN3euf9ac_plugin2eqELb1EjEixEj(ptr noundef nonnull align 8 dereferenceable(8) %7, i32 noundef %8)
  store ptr %9, ptr %5, align 8, !tbaa !198
  %10 = getelementptr inbounds nuw %"class.euf::ac_plugin", ptr %6, i32 0, i32 23
  call void @_ZN6vectorIPN3euf9ac_plugin4nodeELb0EjE5resetEv(ptr noundef nonnull align 8 dereferenceable(8) %10)
  %11 = getelementptr inbounds nuw %"class.euf::ac_plugin", ptr %6, i32 0, i32 23
  %12 = load ptr, ptr %5, align 8, !tbaa !198
  %13 = getelementptr inbounds nuw %"struct.euf::ac_plugin::eq", ptr %12, i32 0, i32 1
  %14 = load i32, ptr %13, align 4, !tbaa !275
  %15 = call noundef nonnull align 8 dereferenceable(24) ptr @_ZN3euf9ac_plugin8monomialEj(ptr noundef nonnull align 8 dereferenceable(432) %6, i32 noundef %14)
  %16 = getelementptr inbounds nuw %"struct.euf::ac_plugin::monomial_t", ptr %15, i32 0, i32 0
  call void @_ZN6vectorIPN3euf9ac_plugin4nodeELb0EjE6appendERKS4_(ptr noundef nonnull align 8 dereferenceable(8) %11, ptr noundef nonnull align 8 dereferenceable(8) %16)
  %17 = load ptr, ptr %5, align 8, !tbaa !198
  %18 = getelementptr inbounds nuw %"struct.euf::ac_plugin::eq", ptr %17, i32 0, i32 0
  %19 = load i32, ptr %18, align 8, !tbaa !274
  %20 = call noundef nonnull align 8 dereferenceable(24) ptr @_ZN3euf9ac_plugin8monomialEj(ptr noundef nonnull align 8 dereferenceable(432) %6, i32 noundef %19)
  %21 = getelementptr inbounds nuw %"class.euf::ac_plugin", ptr %6, i32 0, i32 27
  call void @_ZNK3euf9ac_plugin15init_ref_countsERKNS0_10monomial_tERNS0_10ref_countsE(ptr noundef nonnull align 8 dereferenceable(432) %6, ptr noundef nonnull align 8 dereferenceable(24) %20, ptr noundef nonnull align 8 dereferenceable(16) %21)
  %22 = load i32, ptr %4, align 4, !tbaa !10
  %23 = load ptr, ptr %5, align 8, !tbaa !198
  %24 = getelementptr inbounds nuw %"struct.euf::ac_plugin::eq", ptr %23, i32 0, i32 0
  %25 = load i32, ptr %24, align 8, !tbaa !274
  %26 = call noundef nonnull align 8 dereferenceable(24) ptr @_ZN3euf9ac_plugin8monomialEj(ptr noundef nonnull align 8 dereferenceable(432) %6, i32 noundef %25)
  call void @_ZN3euf9ac_plugin21init_overlap_iteratorEjRKNS0_10monomial_tE(ptr noundef nonnull align 8 dereferenceable(432) %6, i32 noundef %22, ptr noundef nonnull align 8 dereferenceable(24) %26)
  %27 = getelementptr inbounds nuw %"class.euf::ac_plugin", ptr %6, i32 0, i32 33
  call void @llvm.lifetime.end.p0(i64 8, ptr %5) #3
  ret ptr %27
}