; Function Attrs: mustprogress uwtable
define hidden noundef nonnull align 8 dereferenceable(8) ptr @_ZN3euf9ac_plugin18superpose_iteratorEj(ptr noundef nonnull align 8 dereferenceable(432) %0, i32 noundef %1) local_unnamed_addr #3 align 2 {
  %3 = getelementptr inbounds nuw i8, ptr %0, i64 32
  %4 = load ptr, ptr %3, align 8, !tbaa !111
  %5 = zext i32 %1 to i64
  %6 = getelementptr inbounds nuw %"struct.euf::ac_plugin::eq", ptr %4, i64 %5
  %7 = getelementptr inbounds nuw i8, ptr %0, i64 288
  %8 = load ptr, ptr %7, align 8, !tbaa !99
  %.not.i = icmp eq ptr %8, null
  br i1 %.not.i, label %_ZN6vectorIPN3euf9ac_plugin4nodeELb0EjE5resetEv.exit, label %9

9:                                                ; preds = %2
  %10 = getelementptr inbounds i8, ptr %8, i64 -4
  store i32 0, ptr %10, align 4, !tbaa !109
  br label %_ZN6vectorIPN3euf9ac_plugin4nodeELb0EjE5resetEv.exit

_ZN6vectorIPN3euf9ac_plugin4nodeELb0EjE5resetEv.exit: ; preds = %2, %9
  %11 = getelementptr inbounds nuw i8, ptr %6, i64 4
  %12 = load i32, ptr %11, align 4, !tbaa !222
  %13 = getelementptr inbounds nuw i8, ptr %0, i64 56
  %14 = load ptr, ptr %13, align 8, !tbaa !108
  %15 = zext i32 %12 to i64
  %16 = getelementptr inbounds nuw %"struct.euf::ac_plugin::monomial_t", ptr %14, i64 %15
  br label %17

17:                                               ; preds = %_ZN6vectorIPN3euf9ac_plugin4nodeELb0EjE9push_backERKS3_.exit.i, %_ZN6vectorIPN3euf9ac_plugin4nodeELb0EjE5resetEv.exit
  %18 = phi ptr [ %36, %_ZN6vectorIPN3euf9ac_plugin4nodeELb0EjE9push_backERKS3_.exit.i ], [ %8, %_ZN6vectorIPN3euf9ac_plugin4nodeELb0EjE5resetEv.exit ]
  %indvars.iv.i = phi i64 [ %indvars.iv.next.i, %_ZN6vectorIPN3euf9ac_plugin4nodeELb0EjE9push_backERKS3_.exit.i ], [ 0, %_ZN6vectorIPN3euf9ac_plugin4nodeELb0EjE5resetEv.exit ]
  %19 = load ptr, ptr %16, align 8, !tbaa !99
  %20 = icmp eq ptr %19, null
  br i1 %20, label %_ZNK6vectorIPN3euf9ac_plugin4nodeELb0EjE4sizeEv.exit.i, label %21

21:                                               ; preds = %17
  %22 = getelementptr inbounds i8, ptr %19, i64 -4
  %23 = load i32, ptr %22, align 4, !tbaa !109
  %24 = zext i32 %23 to i64
  br label %_ZNK6vectorIPN3euf9ac_plugin4nodeELb0EjE4sizeEv.exit.i

_ZNK6vectorIPN3euf9ac_plugin4nodeELb0EjE4sizeEv.exit.i: ; preds = %21, %17
  %.0.i.i = phi i64 [ %24, %21 ], [ 0, %17 ]
  %25 = icmp samesign ult i64 %indvars.iv.i, %.0.i.i
  br i1 %25, label %26, label %_ZN6vectorIPN3euf9ac_plugin4nodeELb0EjE6appendERKS4_.exit

26:                                               ; preds = %_ZNK6vectorIPN3euf9ac_plugin4nodeELb0EjE4sizeEv.exit.i
  %27 = getelementptr inbounds nuw ptr, ptr %19, i64 %indvars.iv.i
  %28 = icmp eq ptr %18, null
  br i1 %28, label %35, label %29

29:                                               ; preds = %26
  %30 = getelementptr inbounds i8, ptr %18, i64 -4
  %31 = load i32, ptr %30, align 4, !tbaa !109
  %32 = getelementptr inbounds i8, ptr %18, i64 -8
  %33 = load i32, ptr %32, align 4, !tbaa !109
  %34 = icmp eq i32 %31, %33
  br i1 %34, label %35, label %_ZN6vectorIPN3euf9ac_plugin4nodeELb0EjE9push_backERKS3_.exit.i

35:                                               ; preds = %29, %26
  tail call void @_ZN6vectorIPN3euf9ac_plugin4nodeELb0EjE13expand_vectorEv(ptr noundef nonnull align 8 dereferenceable(8) %7)
  %.pre.i.i = load ptr, ptr %7, align 8, !tbaa !99
  %.phi.trans.insert.i.i = getelementptr inbounds i8, ptr %.pre.i.i, i64 -4
  %.pre2.i.i = load i32, ptr %.phi.trans.insert.i.i, align 4, !tbaa !109
  br label %_ZN6vectorIPN3euf9ac_plugin4nodeELb0EjE9push_backERKS3_.exit.i

_ZN6vectorIPN3euf9ac_plugin4nodeELb0EjE9push_backERKS3_.exit.i: ; preds = %35, %29
  %36 = phi ptr [ %.pre.i.i, %35 ], [ %18, %29 ]
  %37 = phi i32 [ %.pre2.i.i, %35 ], [ %31, %29 ]
  %38 = getelementptr inbounds i8, ptr %36, i64 -4
  %39 = zext i32 %37 to i64
  %40 = getelementptr inbounds nuw ptr, ptr %36, i64 %39
  %41 = load ptr, ptr %27, align 8, !tbaa !149
  store ptr %41, ptr %40, align 8, !tbaa !149
  %42 = add i32 %37, 1
  store i32 %42, ptr %38, align 4, !tbaa !109
  %indvars.iv.next.i = add nuw nsw i64 %indvars.iv.i, 1
  br label %17, !llvm.loop !238

_ZN6vectorIPN3euf9ac_plugin4nodeELb0EjE6appendERKS4_.exit: ; preds = %_ZNK6vectorIPN3euf9ac_plugin4nodeELb0EjE4sizeEv.exit.i
  %43 = load i32, ptr %6, align 8, !tbaa !221
  %44 = load ptr, ptr %13, align 8, !tbaa !108
  %45 = zext i32 %43 to i64
  %46 = getelementptr inbounds nuw %"struct.euf::ac_plugin::monomial_t", ptr %44, i64 %45
  %47 = getelementptr inbounds nuw i8, ptr %0, i64 320
  tail call void @_ZNK3euf9ac_plugin15init_ref_countsERK10ptr_vectorINS0_4nodeEERNS0_10ref_countsE(ptr nonnull readnone align 8 poison, ptr noundef nonnull readonly align 8 dereferenceable(24) %46, ptr noundef nonnull align 8 dereferenceable(16) %47)
  %48 = load i32, ptr %6, align 8, !tbaa !221
  %49 = load ptr, ptr %13, align 8, !tbaa !108
  %50 = zext i32 %48 to i64
  %51 = getelementptr inbounds nuw %"struct.euf::ac_plugin::monomial_t", ptr %49, i64 %50
  tail call void @_ZN3euf9ac_plugin21init_overlap_iteratorEjRKNS0_10monomial_tE(ptr noundef nonnull align 8 dereferenceable(432) %0, i32 noundef %1, ptr noundef nonnull align 8 dereferenceable(24) %51)
  %52 = getelementptr inbounds nuw i8, ptr %0, i64 416
  ret ptr %52
}